; Function Attrs: nounwind uwtable
define noalias nonnull ptr @l___private_Lean_Elab_Inductive_0__Lean_Elab_Command_inductiveSyntaxToView___lambda__1(ptr noundef %0, ptr noundef %1, ptr noundef %2, i8 noundef zeroext %3, ptr noundef %4, ptr noundef %5, ptr noundef %6, ptr noundef %7, ptr noundef %8, ptr noundef %9, ptr noundef %10, ptr noundef %11, ptr readnone captures(none) %12, ptr readnone captures(none) %13, ptr readnone captures(none) %14, ptr readnone captures(none) %15, ptr readnone captures(none) %16, ptr readnone captures(none) %17, ptr readnone captures(none) %18, ptr noundef %19) local_unnamed_addr #0 {
  tail call void @lean_inc_heartbeat() #6
  %21 = tail call noalias ptr @mi_malloc_small(i64 noundef 104) #6
  %22 = icmp eq ptr %21, null
  br i1 %22, label %23, label %lean_alloc_ctor.exit

23:                                               ; preds = %20
  tail call void @lean_internal_panic_out_of_memory() #7
  unreachable

lean_alloc_ctor.exit:                             ; preds = %20
  %24 = getelementptr inbounds nuw i8, ptr %21, i64 4
  %25 = getelementptr inbounds nuw i8, ptr %21, i64 96
  store i64 65792, ptr %25, align 8, !tbaa !12
  store i32 1, ptr %21, align 4, !tbaa !4
  store i32 721000, ptr %24, align 4
  %26 = getelementptr inbounds nuw i8, ptr %21, i64 8
  store ptr %0, ptr %26, align 8, !tbaa !10
  %27 = getelementptr inbounds nuw i8, ptr %21, i64 16
  store ptr %1, ptr %27, align 8, !tbaa !10
  %28 = getelementptr inbounds nuw i8, ptr %21, i64 24
  store ptr %2, ptr %28, align 8, !tbaa !10
  %29 = getelementptr inbounds nuw i8, ptr %21, i64 32
  store ptr %4, ptr %29, align 8, !tbaa !10
  %30 = getelementptr inbounds nuw i8, ptr %21, i64 40
  store ptr %5, ptr %30, align 8, !tbaa !10
  %31 = getelementptr inbounds nuw i8, ptr %21, i64 48
  store ptr %6, ptr %31, align 8, !tbaa !10
  %32 = getelementptr inbounds nuw i8, ptr %21, i64 56
  store ptr %7, ptr %32, align 8, !tbaa !10
  %33 = getelementptr inbounds nuw i8, ptr %21, i64 64
  store ptr %8, ptr %33, align 8, !tbaa !10
  %34 = getelementptr inbounds nuw i8, ptr %21, i64 72
  store ptr %9, ptr %34, align 8, !tbaa !10
  %35 = getelementptr inbounds nuw i8, ptr %21, i64 80
  store ptr %10, ptr %35, align 8, !tbaa !10
  %36 = getelementptr inbounds nuw i8, ptr %21, i64 88
  store ptr %11, ptr %36, align 8, !tbaa !10
  store i8 %3, ptr %25, align 1, !tbaa !15
  tail call void @lean_inc_heartbeat() #6
  %37 = tail call noalias ptr @mi_malloc_small(i64 noundef 24) #6
  %38 = icmp eq ptr %37, null
  br i1 %38, label %39, label %lean_alloc_ctor.exit32

39:                                               ; preds = %lean_alloc_ctor.exit
  tail call void @lean_internal_panic_out_of_memory() #7
  unreachable

lean_alloc_ctor.exit32:                           ; preds = %lean_alloc_ctor.exit
  %40 = getelementptr inbounds nuw i8, ptr %37, i64 4
  store i32 1, ptr %37, align 4, !tbaa !4
  store i32 131096, ptr %40, align 4
  %41 = getelementptr inbounds nuw i8, ptr %37, i64 8
  store ptr %21, ptr %41, align 8, !tbaa !10
  %42 = getelementptr inbounds nuw i8, ptr %37, i64 16
  store ptr %19, ptr %42, align 8, !tbaa !10
  ret ptr %37
}